(dp0
S'star'
p1
F-12.832560335301789
sS'home_lane'
p2
F-3.380284655830809
sS'square_num'
p3
F-9.020931999620021
sS'square_cross'
p4
F-6.250029446411856
sS'home'
p5
F183.99322934296495
sS'open'
p6
F40.510339094298665
s.